"File: i2c test.c    Assembler  Version HGASM0202      Page 1


   1  0000              ; Generated by holtek-gcc v3.17, Sun Dec 17 14:07:35 2017
   2  0000              ; 
   3  0000              ; Configuration:
   4  0000              ;       with long instruction
   5  0000              ;       Multi-ROM, Multi-RAM
   6  0000              ;       bits_per_rom_unit:16
   7  0000              ;       with mp1
   8  0000              ;       with tbhp, address(0x9)
   9  0000              ;          Use tabrd-const
  10  0000              ;       
  11  0000              ; SFR address of long-instruction arch:
  12  0000              ;    mp0 = -1,1,0
  13  0000              ;    mp1 = 4,3,2
  14  0000              ;    mp2 = 14,13,12
  15  0000              ;    tbp = 9,7,8
  16  0000              ;    acc = 5
  17  0000              ;    pcl = 6
  18  0000              ;    status = 10
  19  0000              ;    bp = 11
  20  0000              ;    intc = 16
  21  0000              ;       
  22  0000              ;       
  23  0000              ; use 'tabrdc' instead of 'tabrd'
  24  0000              ;       
  25  0000              
  26  0000              #pragma translator "holtek-gcc 4.6.4" "3.17" "build 20130711"
  27  0000              ; Rebuild 307
  28  0000              
  29  0000              ir equ [2]
  30  0000              mp equ [3]
  31  0000              sbp equ [4]
  32  0000              acc equ [5]
  33  0000              bp equ [11]
  34  0000              tblp equ [7]
  35  0000              tbhp equ [9]
  36  0000              status equ [10]
  37  0000              c equ [10].0
  38  0000              ac equ [10].1
  39  0000              z equ [10].2
  40  0000              ov equ [10].3
  41  0000              cz equ [10].6
  42  0000              sc equ [10].7
  43  0000              intc equ [16]
  44  0000              mduwr0 equ [59h]
  45  0000              mduwr1 equ [5ah]
  46  0000              mduwr2 equ [5bh]
  47  0000              mduwr3 equ [5ch]
  48  0000              mduwr4 equ [5dh]
  49  0000              mduwr5 equ [5eh]
  50  0000              mduwrctrl equ [5fh]
  51  0000              
  52  0000              extern ra:byte
  53  0000              extern rb:byte
  54  0000              extern rc:byte
  55  0000              extern rd:byte
  56  0000              extern re:byte
  57  0000              extern rf:byte
  58  0000              extern rg:byte
  59  0000              extern rh:byte
"File: i2c test.ASM  Assembler  Version HGASM0202      Page 2

  60  0000              extern _Crom2Prom:near
  61  0000              extern _Crom2PromNext:near
  62  0000              
  63  0000              RAMBANK 0 @BITDATASEC, @BITDATASEC1
  64  0000              @HCCINIT	.section 'data'
  65  0000              @HCCINIT0	.section 'data'
  66  0000              @BITDATASEC	 .section 'data'
  67  0000              @BITDATASEC1	 .section 'data'
  68  0000              
  69  0000              #pragma debug scope 1 1
  70  0000              	extern __DELAY3:near
  71  0000              	extern __DELAYX3:near
  72  0000              	extern __DELAYX6:near
  73  0000              	extern __DELAYY5:near
  74  0000              	extern __DELAYY3:near
  75  0000              	extern _builtin_holtek_delay_2:byte
  76  0000              ___wdtc equ [62]
  77  0000              ___pawu equ [23]
  78  0000              ___phs0 equ [347]
  79  0000              ___scc equ [58]
  80  0000              ___hircc equ [59]
  81  0000              ___brg1 equ [281]
  82  0000              ___pds0 equ [339]
  83  0000              ___ifs3 equ [331]
  84  0000              ___u1cr1 equ [278]
  85  0000              ___u1cr2 equ [279]
  86  0000              ___brg0 equ [276]
  87  0000              ___pds1 equ [340]
  88  0000              ___u0cr1 equ [273]
  89  0000              ___u0cr2 equ [274]
  90  0000              ___stm0dl equ [80]
  91  0000              ___stm0dh equ [81]
  92  0000              ___stm0al equ [82]
  93  0000              ___stm0ah equ [83]
  94  0000              ___stm0c0 equ [78]
  95  0000              ___stm0c1 equ [79]
  96  0000              ___intc1 equ [17]
  97  0000              ___mfi0 equ [51]
  98  0000              ___intc0 equ [16]
  99  0000              ___u0sr equ [272]
 100  0000              ___txr_rxr0 equ [275]
 101  0000              public _main
 102  0000              #pragma debug scope 2 1

   5  0000              #line 5 "D:\學校\LAB\智慧機車電子鎖專題\BlueTooth_Nomal\i2c test.c"
   5  0000              IFDEF WITH_DEFAULT_STARTUP
   5  0000              extern _main_initial0:near
   5  0000              extern _main_startup:near
   5  0000              ENDIF
   5  0000              
   5  0000              ROMBANK 0 @start
   5  0000              @start .section com_l 'code'
   5  0000              _main_startup1:
   5  0000              @start .section com_e 'code'
   5  0000  0F00     R  	mov a,bank _main
   5  0001  008B        	mov bp,a
   5  0002  2800     R  	jmp _main
   5  0003              
   5  0000              _main .section 'code'
   5  0000              _main proc
"File: i2c test.c    Assembler  Version HGASM0202      Page 3

   5  0000  00              local _main_2 db 1 dup(?)
   6  0001              #line 6 "D:\學校\LAB\智慧機車電子鎖專題\BlueTooth_Nomal\i2c test.c"
   6  0000  0FA8        	mov a,168
   6  0001  00BE        	mov [62],a
   7  0002              #line 7 "D:\學校\LAB\智慧機車電子鎖專題\BlueTooth_Nomal\i2c test.c"
   7  0002  0F01        	mov a,1
   7  0003  0097        	mov [23],a
   8  0004              #line 8 "D:\學校\LAB\智慧機車電子鎖專題\BlueTooth_Nomal\i2c test.c"
   8  0004  9F5B 0001   	lclr [347]
   9  0006              #line 9 "D:\學校\LAB\智慧機車電子鎖專題\BlueTooth_Nomal\i2c test.c"
   9  0006  0F04        	mov a,4
   9  0007  00BA        	mov [58],a
  10  0008              #line 10 "D:\學校\LAB\智慧機車電子鎖專題\BlueTooth_Nomal\i2c test.c"
  10  0008  0F09        	mov a,9
  10  0009  00BB        	mov [59],a
  11  000A              #line 11 "D:\學校\LAB\智慧機車電子鎖專題\BlueTooth_Nomal\i2c test.c"
  11  000A  0F08        	mov a,8
  11  000B  8099 0001   	lmov [281],a
  13  000D              #line 13 "D:\學校\LAB\智慧機車電子鎖專題\BlueTooth_Nomal\i2c test.c"
  13  000D  0F28        	mov a,40
  13  000E  80D3 0001   	lmov [339],a
  14  0010              #line 14 "D:\學校\LAB\智慧機車電子鎖專題\BlueTooth_Nomal\i2c test.c"
  14  0010  B4CB 0001   	lclr [331].1
  16  0012              #line 16 "D:\學校\LAB\智慧機車電子鎖專題\BlueTooth_Nomal\i2c test.c"
  16  0012  0F80        	mov a,128
  16  0013  8096 0001   	lmov [278],a
  17  0015              #line 17 "D:\學校\LAB\智慧機車電子鎖專題\BlueTooth_Nomal\i2c test.c"
  17  0015  0FE0        	mov a,224
  17  0016  8097 0001   	lmov [279],a
  19  0018              #line 19 "D:\學校\LAB\智慧機車電子鎖專題\BlueTooth_Nomal\i2c test.c"
  19  0018  0F08        	mov a,8
  19  0019  8094 0001   	lmov [276],a
  20  001B              #line 20 "D:\學校\LAB\智慧機車電子鎖專題\BlueTooth_Nomal\i2c test.c"
  20  001B  0F09        	mov a,9
  20  001C  80D4 0001   	lmov [340],a
  21  001E              #line 21 "D:\學校\LAB\智慧機車電子鎖專題\BlueTooth_Nomal\i2c test.c"
  21  001E  B04B 0001   	lset [331].0
  22  0020              #line 22 "D:\學校\LAB\智慧機車電子鎖專題\BlueTooth_Nomal\i2c test.c"
  22  0020  0F80        	mov a,128
  22  0021  8091 0001   	lmov [273],a
  23  0023              #line 23 "D:\學校\LAB\智慧機車電子鎖專題\BlueTooth_Nomal\i2c test.c"
  23  0023  0FE0        	mov a,224
  23  0024  8092 0001   	lmov [274],a
  26  0026              #line 26 "D:\學校\LAB\智慧機車電子鎖專題\BlueTooth_Nomal\i2c test.c"
  26  0026  1F50        	clr [80]
  27  0027              #line 27 "D:\學校\LAB\智慧機車電子鎖專題\BlueTooth_Nomal\i2c test.c"
  27  0027  1F51        	clr [81]
  28  0028              #line 28 "D:\學校\LAB\智慧機車電子鎖專題\BlueTooth_Nomal\i2c test.c"
  28  0028  0FD0        	mov a,208
  28  0029  00D2        	mov [82],a
  29  002A              #line 29 "D:\學校\LAB\智慧機車電子鎖專題\BlueTooth_Nomal\i2c test.c"
  29  002A  0F07        	mov a,7
  29  002B  00D3        	mov [83],a
  30  002C              #line 30 "D:\學校\LAB\智慧機車電子鎖專題\BlueTooth_Nomal\i2c test.c"
  30  002C  1F4E        	clr [78]
  31  002D              #line 31 "D:\學校\LAB\智慧機車電子鎖專題\BlueTooth_Nomal\i2c test.c"
  31  002D  0FC1        	mov a,193
  31  002E  00CF        	mov [79],a
  32  002F              #line 32 "D:\學校\LAB\智慧機車電子鎖專題\BlueTooth_Nomal\i2c test.c"
  32  002F  31CE        	set [78].3
"File: i2c test.c    Assembler  Version HGASM0202      Page 4

  33  0030              #line 33 "D:\學校\LAB\智慧機車電子鎖專題\BlueTooth_Nomal\i2c test.c"
  33  0030  3091        	set [17].1
  34  0031              #line 34 "D:\學校\LAB\智慧機車電子鎖專題\BlueTooth_Nomal\i2c test.c"
  34  0031  31B3        	set [51].3
  35  0032              #line 35 "D:\學校\LAB\智慧機車電子鎖專題\BlueTooth_Nomal\i2c test.c"
  35  0032  3010        	set [16].0
  36  0033              #line 36 "D:\學校\LAB\智慧機車電子鎖專題\BlueTooth_Nomal\i2c test.c"
  36  0033              	fcall _gpioinit
  36  003A              _L2:
  36  003A  0700     R  	mov a,_buffer[0]
  36  003B  0080     E  	mov ra,a
  36  003C  0700     R  	mov a,_instruction[0]
  36  003D  0080     R  	mov _main_2[0],a
  36  003E              _L16:
  39  003E              #line 39 "D:\學校\LAB\智慧機車電子鎖專題\BlueTooth_Nomal\i2c test.c"
  39  003E  B910 0001   	lsnz [272].2
  39  0040  2800     R  	jmp _L3
  40  0041              #line 40 "D:\學校\LAB\智慧機車電子鎖專題\BlueTooth_Nomal\i2c test.c"
  40  0041  8713 0001   	lmov a,[275]
  40  0043  0080     E  	mov ra,a
  40  0044              _L3:
  42  0044              #line 42 "D:\學校\LAB\智慧機車電子鎖專題\BlueTooth_Nomal\i2c test.c"
  42  0044  1E00     E  	snz ra
  42  0045  2800     R  	jmp _L4
  42  0046  0700     E  	mov a,ra
  42  0047  0080     R  	mov _main_2[0],a
  42  0048              _L4:
  47  0048              #line 47 "D:\學校\LAB\智慧機車電子鎖專題\BlueTooth_Nomal\i2c test.c"
  47  0048  0700     R  	mov a,_main_2[0]
  47  0049  0A41        	sub a,65
  47  004A  3D0A        	sz z
  47  004B  2800     R  	jmp _L6
  47  004C  0A01        	sub a,(66)-(65)
  47  004D  3D0A        	sz z
  47  004E  2800     R  	jmp _L7
  47  004F  0700     R  	mov a,_main_2[0]
  47  0050  0A43        	sub a,67
  47  0051  3D0A        	sz z
  47  0052  2800     R  	jmp _L8
  47  0053  0A01        	sub a,(68)-(67)
  47  0054  3D0A        	sz z
  47  0055  2800     R  	jmp _L9
  47  0056  0700     R  	mov a,_main_2[0]
  47  0057  0A45        	sub a,69
  47  0058  3D0A        	sz z
  47  0059  2800     R  	jmp _L10
  47  005A  0A01        	sub a,(70)-(69)
  47  005B  3D0A        	sz z
  47  005C  2800     R  	jmp _L11
  47  005D  0700     R  	mov a,_main_2[0]
  47  005E  0A47        	sub a,71
  47  005F  3D0A        	sz z
  47  0060  2800     R  	jmp _L12
  47  0061  0A01        	sub a,(72)-(71)
  47  0062  3D0A        	sz z
  47  0063  2800     R  	jmp _L13
  47  0064  0700     R  	mov a,_main_2[0]
  47  0065  0A49        	sub a,73
  47  0066  3D0A        	sz z
  47  0067  2800     R  	jmp _L14
"File: i2c test.c    Assembler  Version HGASM0202      Page 5

  47  0068  0A02        	sub a,(75)-(73)
  47  0069  3D0A        	sz z
  47  006A  2800     R  	jmp _L15
  47  006B  1F00     E  	clr ra
  47  006C  2800     R  	jmp _L16
  47  006D              _L6:
  47  006D  1F00     R  	clr _buffer[0]
  47  006E  0F41        	mov a,65
  47  006F  0080     R  	mov _instruction[0],a
  50  0070              #line 50 "D:\學校\LAB\智慧機車電子鎖專題\BlueTooth_Nomal\i2c test.c"
  50  0070              	fcall _Login
  50  0077  2800     R  	jmp _L22
  50  0078              _L7:
  50  0078  1F00     R  	clr _buffer[0]
  50  0079  0F42        	mov a,66
  50  007A  0080     R  	mov _instruction[0],a
  54  007B              #line 54 "D:\學校\LAB\智慧機車電子鎖專題\BlueTooth_Nomal\i2c test.c"
  54  007B              	fcall _Car_Open
  54  0082  2800     R  	jmp _L22
  54  0083              _L8:
  54  0083  1F00     R  	clr _buffer[0]
  54  0084  0F43        	mov a,67
  54  0085  0080     R  	mov _instruction[0],a
  58  0086              #line 58 "D:\學校\LAB\智慧機車電子鎖專題\BlueTooth_Nomal\i2c test.c"
  58  0086              	fcall _Car_Close
  58  008D  2800     R  	jmp _L22
  58  008E              _L9:
  58  008E  1F00     R  	clr _buffer[0]
  58  008F  0F44        	mov a,68
  58  0090  0080     R  	mov _instruction[0],a
  62  0091              #line 62 "D:\學校\LAB\智慧機車電子鎖專題\BlueTooth_Nomal\i2c test.c"
  62  0091              	fcall _Anti_Open
  62  0098  2800     R  	jmp _L22
  62  0099              _L10:
  62  0099  1F00     R  	clr _buffer[0]
  62  009A  0F45        	mov a,69
  62  009B  0080     R  	mov _instruction[0],a
  66  009C              #line 66 "D:\學校\LAB\智慧機車電子鎖專題\BlueTooth_Nomal\i2c test.c"
  66  009C              	fcall _Anti_Close
  66  00A3  2800     R  	jmp _L22
  66  00A4              _L11:
  66  00A4  1F00     R  	clr _buffer[0]
  66  00A5  0F46        	mov a,70
  66  00A6  0080     R  	mov _instruction[0],a
  70  00A7              #line 70 "D:\學校\LAB\智慧機車電子鎖專題\BlueTooth_Nomal\i2c test.c"
  70  00A7              	fcall _Key_Lock_Open
  70  00AE  2800     R  	jmp _L22
  70  00AF              _L12:
  70  00AF  1F00     R  	clr _buffer[0]
  70  00B0  0F47        	mov a,71
  70  00B1  0080     R  	mov _instruction[0],a
  74  00B2              #line 74 "D:\學校\LAB\智慧機車電子鎖專題\BlueTooth_Nomal\i2c test.c"
  74  00B2              	fcall _Key_Lock_Close
  74  00B9  2800     R  	jmp _L22
  74  00BA              _L13:
  74  00BA  1F00     R  	clr _buffer[0]
  74  00BB  0F48        	mov a,72
  74  00BC  0080     R  	mov _instruction[0],a
  78  00BD              #line 78 "D:\學校\LAB\智慧機車電子鎖專題\BlueTooth_Nomal\i2c test.c"
  78  00BD              	fcall _Find_Car
"File: i2c test.c    Assembler  Version HGASM0202      Page 6

  78  00C4  2800     R  	jmp _L22
  78  00C5              _L14:
  78  00C5  1F00     R  	clr _buffer[0]
  78  00C6  0F49        	mov a,73
  78  00C7  0080     R  	mov _instruction[0],a
  82  00C8              #line 82 "D:\學校\LAB\智慧機車電子鎖專題\BlueTooth_Nomal\i2c test.c"
  82  00C8              	fcall _ChangePassWord
  82  00CF  2800     R  	jmp _L22
  82  00D0              _L15:
  82  00D0  1F00     R  	clr _buffer[0]
  82  00D1  0F4B        	mov a,75
  82  00D2  0080     R  	mov _instruction[0],a
  86  00D3              #line 86 "D:\學校\LAB\智慧機車電子鎖專題\BlueTooth_Nomal\i2c test.c"
  86  00D3              	fcall _SetUserModeZero
  86  00DA              _L22:
  87  00DA              #line 87 "D:\學校\LAB\智慧機車電子鎖專題\BlueTooth_Nomal\i2c test.c"
  87  00DA  1F00     R  	clr _instruction[0]
  88  00DB              #line 88 "D:\學校\LAB\智慧機車電子鎖專題\BlueTooth_Nomal\i2c test.c"
  88  00DB  2800     R  	jmp _L2
  88  00DC  2800     R  	jmp $
  88  00DD              _main endp
  88  00DD              
  88  00DD              @dummy endp
  88  00DD              
  88  00DD              #line 88 "D:\學校\LAB\智慧機車電子鎖專題\BlueTooth_Nomal\i2c test.c"
  88  00DD              #pragma debug scope 1 1
  88  00DD              public _ISR_tmr0
  88  00DD              #pragma debug scope 3 1
 105  00DD              #line 105 "D:\學校\LAB\智慧機車電子鎖專題\BlueTooth_Nomal\i2c test.c"
 105  00DD              rombank 0 @ISR_tmr0_code
 105  0000              @ISR_tmr0_code .section at 20 'code'
 105  0000  0080     E  	mov r1,a
 105  0001  070B        	mov a,bp
 105  0002  1F0B        	clr bp
 105  0003  2800     R  	jmp _ISR_tmr0
 105  0004              ROMBANK 0 _ISR_tmr0
 105  0004              #pragma debug scope 1 1
 105  0004              @dummy20 endp
 105  0004              #pragma debug scope 4 1
 105  0000              _ISR_tmr0 .section 'code'
 105  0000              _ISR_tmr0 proc
 105  0000  0080     E  	mov r2,a
 105  0001  070A        	mov a, status
 105  0002  0080     E  	mov r3,a
 105  0003  0703        	mov a,mp
 105  0004  0080     E  	mov r4,a
 105  0005  0704        	mov a,sbp
 105  0006  0080     E  	mov r5,a
 105  0007  0707        	mov a,tblp
 105  0008  0080     E  	mov r6,a
 105  0009  0709        	mov a,tbhp
 105  000A  0080     E  	mov r7,a
 106  000B              #line 106 "D:\學校\LAB\智慧機車電子鎖專題\BlueTooth_Nomal\i2c test.c"
 106  000B  1E00     R  	snz _instruction[0]
 106  000C  2800     R  	jmp _L25
 108  000D              #line 108 "D:\學校\LAB\智慧機車電子鎖專題\BlueTooth_Nomal\i2c test.c"
 108  000D  1F00     R  	clr _counter[0]
 108  000E  1F00     R  	clr _counter[1]
 108  000F  1F00     R  	clr _counter[2]
 108  0010  1F00     R  	clr _counter[3]
"File: i2c test.c    Assembler  Version HGASM0202      Page 7

 108  0011  2800     R  	jmp _L26
 108  0012              _L25:
 110  0012              #line 110 "D:\學校\LAB\智慧機車電子鎖專題\BlueTooth_Nomal\i2c test.c"
 110  0012  0F13        	mov a,19
 110  0013  0200     R  	sub a,_counter[0]
 110  0014  0F00        	mov a,0
 110  0015  1200     R  	sbc a,_counter[1]
 110  0016  0F00        	mov a,0
 110  0017  1200     R  	sbc a,_counter[2]
 110  0018  0F00        	mov a,0
 110  0019  1200     R  	sbc a,_counter[3]
 110  001A  3C0A        	sz c
 110  001B  2800     R  	jmp _L26
 112  001C              #line 112 "D:\學校\LAB\智慧機車電子鎖專題\BlueTooth_Nomal\i2c test.c"
 112  001C  1F00     R  	clr _counter[0]
 112  001D  1F00     R  	clr _counter[1]
 112  001E  1F00     R  	clr _counter[2]
 112  001F  1F00     R  	clr _counter[3]
 113  0020              #line 113 "D:\學校\LAB\智慧機車電子鎖專題\BlueTooth_Nomal\i2c test.c"
 113  0020              	fcall _Anti_theft
 113  0027              _L26:
 115  0027              #line 115 "D:\學校\LAB\智慧機車電子鎖專題\BlueTooth_Nomal\i2c test.c"
 115  0027  0F01        	mov a,1
 115  0028  0380     R  	addm a,_counter[0]
 115  0029  0F00        	mov a,0
 115  002A  1380     R  	adcm a,_counter[1]
 115  002B  1380     R  	adcm a,_counter[2]
 115  002C  1380     R  	adcm a,_counter[3]
 116  002D              #line 116 "D:\學校\LAB\智慧機車電子鎖專題\BlueTooth_Nomal\i2c test.c"
 116  002D  3691        	clr [17].5
 117  002E              #line 117 "D:\學校\LAB\智慧機車電子鎖專題\BlueTooth_Nomal\i2c test.c"
 117  002E  37B3        	clr [51].7
 117  002F  0700     E  	mov a,r2
 117  0030  008B        	mov bp,a
 117  0031  0700     E  	mov a,r3
 117  0032  008A        	mov status,a
 117  0033  0700     E  	mov a,r4
 117  0034  0083        	mov mp,a
 117  0035  0700     E  	mov a,r5
 117  0036  0084        	mov sbp,a
 117  0037  0700     E  	mov a,r6
 117  0038  0087        	mov tblp,a
 117  0039  0700     E  	mov a,r7
 117  003A  0089        	mov tbhp,a
 117  003B  1D05        	tabrdc acc
 117  003C  0700     E  	mov a,r1
 117  003D  0004        	reti
 117  003E              _ISR_tmr0 endp
 117  003E              
 117  003E              #line 117 "D:\學校\LAB\智慧機車電子鎖專題\BlueTooth_Nomal\i2c test.c"
 117  003E              #pragma debug scope 1 1
 117  003E              public _buffer
 117  0000              @HCCINIT	.section 'data'
   4  0000              #line 4 "D:\學校\LAB\智慧機車電子鎖專題\BlueTooth_Nomal\i2c test.c"
   4  0000              @HCCINIT_buffer .section 'data'
   4  0000              _buffer label byte
   4  0000              #pragma debug variable 8 1 _buffer "buffer"
   4  0000              	db 0
   4  0000              @ROMDATA_BASE .section inpage 'code'
   4  0000              	db 0
"File: i2c test.c    Assembler  Version HGASM0202      Page 8

   4  0001              @HCCINIT_buffer .section 'data'
   4  0001              public _instruction
   4  0001              #line 4 "D:\學校\LAB\智慧機車電子鎖專題\BlueTooth_Nomal\i2c test.c"
   4  0000              @HCCINIT_instruction .section 'data'
   4  0000              _instruction label byte
   4  0000              #pragma debug variable 8 1 _instruction "instruction"
   4  0000              	db 0
   4  0001              @ROMDATA_BASE .section inpage 'code'
   4  0001              	db 0
   4  0001              @HCCINIT_instruction .section 'data'
   4  0001              public _counter
   3  0001              #line 3 "D:\學校\LAB\智慧機車電子鎖專題\BlueTooth_Nomal\i2c test.c"
   3  0000              @HCCINIT_counter .section 'data'
   3  0000              _counter label byte
   3  0000              #pragma debug variable 14 1 _counter "counter"
   3  0000              	db 0
   3  0001              @ROMDATA_BASE .section inpage 'code'
   3  0001              	db 0
   3  0001              @HCCINIT_counter .section 'data'
   3  0001              	db 0
   3  0002              @ROMDATA_BASE .section inpage 'code'
   3  0002              	db 0
   3  0002              @HCCINIT_counter .section 'data'
   3  0002              	db 0
   3  0002              @ROMDATA_BASE .section inpage 'code'
   3  0002              	db 0
   3  0003              @HCCINIT_counter .section 'data'
   3  0003              	db 0
   3  0003              @ROMDATA_BASE .section inpage 'code'
   3  0003              	db 0
   3  0004              @HCCINIT_counter .section 'data'
   3  0004              #pragma debug struct_end
   3  0004              #pragma debug struct_end
   3  0004              #pragma debug union_end
   3  0004              #pragma debug union_end
   3  0004              #pragma debug variable 43 1 ___intc0 "__intc0" 1
   3  0004              #pragma debug struct_end
   3  0004              #pragma debug struct_end
   3  0004              #pragma debug union_end
   3  0004              #pragma debug union_end
   3  0004              #pragma debug variable 45 1 ___intc1 "__intc1" 1
   3  0004              #pragma debug struct_end
   3  0004              #pragma debug struct_end
   3  0004              #pragma debug union_end
   3  0004              #pragma debug union_end
   3  0004              #pragma debug variable 47 1 ___pawu "__pawu" 1
   3  0004              #pragma debug struct_end
   3  0004              #pragma debug struct_end
   3  0004              #pragma debug union_end
   3  0004              #pragma debug union_end
   3  0004              #pragma debug variable 49 1 ___mfi0 "__mfi0" 1
   3  0004              #pragma debug struct_end
   3  0004              #pragma debug struct_end
   3  0004              #pragma debug union_end
   3  0004              #pragma debug union_end
   3  0004              #pragma debug variable 51 1 ___scc "__scc" 1
   3  0004              #pragma debug struct_end
   3  0004              #pragma debug struct_end
   3  0004              #pragma debug union_end
   3  0004              #pragma debug union_end
"File: i2c test.c    Assembler  Version HGASM0202      Page 9

   3  0004              #pragma debug variable 53 1 ___hircc "__hircc" 1
   3  0004              #pragma debug struct_end
   3  0004              #pragma debug struct_end
   3  0004              #pragma debug union_end
   3  0004              #pragma debug union_end
   3  0004              #pragma debug variable 55 1 ___wdtc "__wdtc" 1
   3  0004              #pragma debug struct_end
   3  0004              #pragma debug struct_end
   3  0004              #pragma debug union_end
   3  0004              #pragma debug union_end
   3  0004              #pragma debug variable 57 1 ___stm0c0 "__stm0c0" 1
   3  0004              #pragma debug struct_end
   3  0004              #pragma debug struct_end
   3  0004              #pragma debug union_end
   3  0004              #pragma debug union_end
   3  0004              #pragma debug variable 59 1 ___stm0c1 "__stm0c1" 1
   3  0004              #pragma debug variable 8 1 ___stm0dl "__stm0dl" 1
   3  0004              #pragma debug variable 8 1 ___stm0dh "__stm0dh" 1
   3  0004              #pragma debug variable 8 1 ___stm0al "__stm0al" 1
   3  0004              #pragma debug variable 8 1 ___stm0ah "__stm0ah" 1
   3  0004              #pragma debug struct_end
   3  0004              #pragma debug struct_end
   3  0004              #pragma debug union_end
   3  0004              #pragma debug union_end
   3  0004              #pragma debug variable 61 1 ___u0sr "__u0sr" 1
   3  0004              #pragma debug struct_end
   3  0004              #pragma debug struct_end
   3  0004              #pragma debug union_end
   3  0004              #pragma debug union_end
   3  0004              #pragma debug variable 63 1 ___u0cr1 "__u0cr1" 1
   3  0004              #pragma debug struct_end
   3  0004              #pragma debug struct_end
   3  0004              #pragma debug union_end
   3  0004              #pragma debug union_end
   3  0004              #pragma debug variable 65 1 ___u0cr2 "__u0cr2" 1
   3  0004              #pragma debug variable 8 1 ___txr_rxr0 "__txr_rxr0" 1
   3  0004              #pragma debug variable 8 1 ___brg0 "__brg0" 1
   3  0004              #pragma debug struct_end
   3  0004              #pragma debug struct_end
   3  0004              #pragma debug union_end
   3  0004              #pragma debug union_end
   3  0004              #pragma debug variable 67 1 ___u1cr1 "__u1cr1" 1
   3  0004              #pragma debug struct_end
   3  0004              #pragma debug struct_end
   3  0004              #pragma debug union_end
   3  0004              #pragma debug union_end
   3  0004              #pragma debug variable 69 1 ___u1cr2 "__u1cr2" 1
   3  0004              #pragma debug variable 8 1 ___brg1 "__brg1" 1
   3  0004              #pragma debug struct_end
   3  0004              #pragma debug struct_end
   3  0004              #pragma debug union_end
   3  0004              #pragma debug union_end
   3  0004              #pragma debug variable 71 1 ___ifs3 "__ifs3" 1
   3  0004              #pragma debug struct_end
   3  0004              #pragma debug struct_end
   3  0004              #pragma debug union_end
   3  0004              #pragma debug union_end
   3  0004              #pragma debug variable 73 1 ___pds0 "__pds0" 1
   3  0004              #pragma debug struct_end
   3  0004              #pragma debug struct_end
"File: i2c test.c    Assembler  Version HGASM0202      Page 10

   3  0004              #pragma debug union_end
   3  0004              #pragma debug union_end
   3  0004              #pragma debug variable 75 1 ___pds1 "__pds1" 1
   3  0004              #pragma debug struct_end
   3  0004              #pragma debug struct_end
   3  0004              #pragma debug union_end
   3  0004              #pragma debug union_end
   3  0004              #pragma debug variable 77 1 ___phs0 "__phs0" 1
   3  0004              extern r1:byte
   3  0004              extern r2:byte
   3  0004              extern r3:byte
   3  0004              extern r4:byte
   3  0004              extern r5:byte
   3  0004              extern r6:byte
   3  0004              extern r7:byte
   5  0004              #line 5 "D:\學校\LAB\智慧機車電子鎖專題\BlueTooth_Nomal\i2c test.c"
   5  0000              @code .section at 0 'code'
   5  0000  1F0B        	clr bp
   5  0001  2800     R  	jmp _main_startup1
   5  0002              
   5  0002              extern _gpioinit:near
   5  0002              extern _Login:near
   5  0002              extern _Car_Open:near
   5  0002              extern _Car_Close:near
   5  0002              extern _Anti_Open:near
   5  0002              extern _Anti_Close:near
   5  0002              extern _Key_Lock_Open:near
   5  0002              extern _Key_Lock_Close:near
   5  0002              extern _Find_Car:near
   5  0002              extern _ChangePassWord:near
   5  0002              extern _SetUserModeZero:near
   5  0002              extern _Anti_theft:near
   5  0002              
   5  0002              ; 
   5  0002              ; Generated by holtek-gcc v3.17, Sun Dec 17 14:07:35 2017
   5  0002              ; Rebuild 307
   5  0002              ; end of file


        0 Errors, 0